-----BEGIN RSA PRIVATE KEY-----
MIICWwIBAAKBgQCtrkhIImvGhxV/2nzTcoG+Q5GCDcDhkjXupGCCWyxAB0HyXQMI
qaCjjX+CSze8VolFMRgNAndTlhSFOi882Txij/HBSznSkmhhDMtt92EhUA752vGB
y1USYk7VF3WmKNSo2grakSw+ORc7oY9tSNR54uRLD+FtFsUNDqh/nXzqvwIDAQAB
AoGAS0uPUpZ5muvdSjxyeUjfLpkkb/l+cUxtzTO+E0Vrfaan1Ga2df70AXPKn7X0
R9ZMVI7gGmPDT5107/01lW+oWWuRNawi/5S4ygIQXvWL5B9gnt4eQfYw4X4w7YC+
qFnXbxg+fv87ybwZUNw63235rYgEhba05zQFSni5aIusGoECQQDa27Ht+g3ozIOm
ySMwV7WPxp1aaGfo7OaDbiqfv73evja8CKhdV9GybD3GDYEjHTij5fAstaGNduBv
zI2wqZ+PAkEAyyfaaGE3hy+uTZZyqGBNDPiwtJrVJmQQxqwVrML6/YCUEiMAFvjH
2vDLbAjmQ9YTD+fHFvmAIUlJSoYn3nBp0QJAYAeN5vGVMNSr337Z5dhWXiOz33t4
PIfWDU1FfprPYPDta0wRNAPYiwVbhY9fXlzwAVpfK/72R/AlQmjqst16mQJAZJmO
kOObQKk+0hLvIivV29eGgViutj0VBZyPeyZubXvvVu/YCogVR3i38v6RMARhGh43
O0w/w7vrvCiks4TNEQJAEwFs3sFJrsl2Q8ofSfs5qieE9GG8MmLSxngw/G+U8cKD
/aXiX6h7rFP6lXC35vP45q3SOqvcyp/wvdG1h74hTQ==
-----END RSA PRIVATE KEY-----
Certificate:
    Data:
        Version: 3 (0x2)
        Serial Number: 203 (0xcb)
        Signature Algorithm: md5WithRSAEncryption
        Issuer: C=US, ST=Pennsylvania, L=Pittsburgh, O=Probe - Susitna, OU=Certificate Authority, CN=susitna-boss.pdl.cmu.edu/emailAddress=mfranzos+tbopsemail@andrew.cmu.edu
        Validity
            Not Before: Jul  8 13:09:44 2015 GMT
            Not After : Apr  3 13:09:44 2018 GMT
        Subject: C=US, ST=Pennsylvania, O=Probe - Susitna, OU=sslxmlrpc, CN=15747c03-2532-11e5-9d19-0050569a0016/emailAddress=utkarshp@susitna.pdl.cmu.local
        Subject Public Key Info:
            Public Key Algorithm: rsaEncryption
            RSA Public Key: (1024 bit)
                Modulus (1024 bit):
                    00:ad:ae:48:48:22:6b:c6:87:15:7f:da:7c:d3:72:
                    81:be:43:91:82:0d:c0:e1:92:35:ee:a4:60:82:5b:
                    2c:40:07:41:f2:5d:03:08:a9:a0:a3:8d:7f:82:4b:
                    37:bc:56:89:45:31:18:0d:02:77:53:96:14:85:3a:
                    2f:3c:d9:3c:62:8f:f1:c1:4b:39:d2:92:68:61:0c:
                    cb:6d:f7:61:21:50:0e:f9:da:f1:81:cb:55:12:62:
                    4e:d5:17:75:a6:28:d4:a8:da:0a:da:91:2c:3e:39:
                    17:3b:a1:8f:6d:48:d4:79:e2:e4:4b:0f:e1:6d:16:
                    c5:0d:0e:a8:7f:9d:7c:ea:bf
                Exponent: 65537 (0x10001)
        X509v3 extensions:
            X509v3 Basic Constraints: critical
                CA:FALSE
            X509v3 Subject Key Identifier: 
                3D:0C:15:A6:CB:5A:D6:2A:15:B1:52:FA:90:E9:F1:E2:BE:98:5E:2C
            X509v3 Subject Alternative Name: 
                URI:urn:publicid:IDN+susitna.pdl.cmu.local+user+utkarshp, email:utkarshp@susitna.pdl.cmu.local, URI:urn:uuid:15747c03-2532-11e5-9d19-0050569a0016
    Signature Algorithm: md5WithRSAEncryption
        a9:b7:ab:55:7f:59:ce:0c:fe:28:7a:f8:d3:ec:ad:b4:38:ae:
        d6:3e:9b:0a:16:0c:c6:72:bf:fb:fe:4f:4c:ed:46:81:a5:dc:
        59:f3:9e:29:cb:f1:cc:ed:80:03:1c:09:9c:61:d3:e6:36:7b:
        ba:49:56:11:4c:17:9c:42:88:c2:e7:ed:48:1e:af:5e:cb:e6:
        70:b6:f8:e8:c7:f2:ee:50:ee:4f:ec:a3:9b:ff:44:05:d9:a3:
        d6:70:56:a5:ed:4d:af:11:2d:05:3c:48:38:04:01:b1:f2:ed:
        76:f4:bf:9c:a8:c6:52:9c:ff:23:85:9f:36:4c:c8:c3:d3:08:
        eb:85
-----BEGIN CERTIFICATE-----
MIIDtjCCAx+gAwIBAgICAMswDQYJKoZIhvcNAQEEBQAwgckxCzAJBgNVBAYTAlVT
MRUwEwYDVQQIEwxQZW5uc3lsdmFuaWExEzARBgNVBAcTClBpdHRzYnVyZ2gxGDAW
BgNVBAoTD1Byb2JlIC0gU3VzaXRuYTEeMBwGA1UECxMVQ2VydGlmaWNhdGUgQXV0
aG9yaXR5MSEwHwYDVQQDExhzdXNpdG5hLWJvc3MucGRsLmNtdS5lZHUxMTAvBgkq
hkiG9w0BCQEWIm1mcmFuem9zK3Rib3BzZW1haWxAYW5kcmV3LmNtdS5lZHUwHhcN
MTUwNzA4MTMwOTQ0WhcNMTgwNDAzMTMwOTQ0WjCBsDELMAkGA1UEBhMCVVMxFTAT
BgNVBAgTDFBlbm5zeWx2YW5pYTEYMBYGA1UEChMPUHJvYmUgLSBTdXNpdG5hMRIw
EAYDVQQLEwlzc2x4bWxycGMxLTArBgNVBAMTJDE1NzQ3YzAzLTI1MzItMTFlNS05
ZDE5LTAwNTA1NjlhMDAxNjEtMCsGCSqGSIb3DQEJARYedXRrYXJzaHBAc3VzaXRu
YS5wZGwuY211LmxvY2FsMIGfMA0GCSqGSIb3DQEBAQUAA4GNADCBiQKBgQCtrkhI
ImvGhxV/2nzTcoG+Q5GCDcDhkjXupGCCWyxAB0HyXQMIqaCjjX+CSze8VolFMRgN
AndTlhSFOi882Txij/HBSznSkmhhDMtt92EhUA752vGBy1USYk7VF3WmKNSo2gra
kSw+ORc7oY9tSNR54uRLD+FtFsUNDqh/nXzqvwIDAQABo4HDMIHAMAwGA1UdEwEB
/wQCMAAwHQYDVR0OBBYEFD0MFabLWtYqFbFS+pDp8eK+mF4sMIGQBgNVHREEgYgw
gYWGNHVybjpwdWJsaWNpZDpJRE4rc3VzaXRuYS5wZGwuY211LmxvY2FsK3VzZXIr
dXRrYXJzaHCBHnV0a2Fyc2hwQHN1c2l0bmEucGRsLmNtdS5sb2NhbIYtdXJuOnV1
aWQ6MTU3NDdjMDMtMjUzMi0xMWU1LTlkMTktMDA1MDU2OWEwMDE2MA0GCSqGSIb3
DQEBBAUAA4GBAKm3q1V/Wc4M/ih6+NPsrbQ4rtY+mwoWDMZyv/v+T0ztRoGl3Fnz
ninL8cztgAMcCZxh0+Y2e7pJVhFMF5xCiMLn7Uger17L5nC2+OjH8u5Q7k/so5v/
RAXZo9ZwVqXtTa8RLQU8SDgEAbHy7Xb0v5yoxlKc/yOFnzZMyMPTCOuF
-----END CERTIFICATE-----
